target datalayout = "e-m:e-p270:32:32-p271:32:32-p272:64:64-i64:64-i128:128-f80:128-n8:16:32:64-S128"
target triple = "x86_64-pc-linux-gnu"

%"struct.open_spiel::GameType" = type <{ %"class.std::__cxx11::basic_string", %"class.std::__cxx11::basic_string", i32, i32, i32, i32, i32, i32, i32, i8, i8, i8, i8, %"class.std::map", i8, i8, [6 x i8] }>
%"class.std::__cxx11::basic_string" = type { %"struct.std::__cxx11::basic_string<char>::_Alloc_hider", i64, %union.anon }
%"struct.std::__cxx11::basic_string<char>::_Alloc_hider" = type { ptr }
%union.anon = type { i64, [8 x i8] }
%"class.std::map" = type { %"class.std::_Rb_tree" }
%"class.std::_Rb_tree" = type { %"struct.std::_Rb_tree<std::__cxx11::basic_string<char>, std::pair<const std::__cxx11::basic_string<char>, open_spiel::GameParameter>, std::_Select1st<std::pair<const std::__cxx11::basic_string<char>, open_spiel::GameParameter>>, std::less<std::__cxx11::basic_string<char>>>::_Rb_tree_impl" }
%"struct.std::_Rb_tree<std::__cxx11::basic_string<char>, std::pair<const std::__cxx11::basic_string<char>, open_spiel::GameParameter>, std::_Select1st<std::pair<const std::__cxx11::basic_string<char>, open_spiel::GameParameter>>, std::less<std::__cxx11::basic_string<char>>>::_Rb_tree_impl" = type { [8 x i8], %"struct.std::_Rb_tree_header" }
%"struct.std::_Rb_tree_header" = type { %"struct.std::_Rb_tree_node_base", i64 }
%"struct.std::_Rb_tree_node_base" = type { i32, ptr, ptr, ptr }
%"class.std::shared_ptr" = type { %"class.std::__shared_ptr" }
%"class.std::__shared_ptr" = type { ptr, %"class.std::__shared_count" }
%"class.std::__shared_count" = type { ptr }
%"class.std::vector.14" = type { %"struct.std::_Vector_base.15" }
%"struct.std::_Vector_base.15" = type { %"struct.std::_Vector_base<int, std::allocator<int>>::_Vector_impl" }
%"struct.std::_Vector_base<int, std::allocator<int>>::_Vector_impl" = type { %"struct.std::_Vector_base<int, std::allocator<int>>::_Vector_impl_data" }
%"struct.std::_Vector_base<int, std::allocator<int>>::_Vector_impl_data" = type { ptr, ptr, ptr }
%"class.open_spiel::liars_dice::LiarsDiceState" = type { %"class.open_spiel::State.base", %"class.std::vector.9", %"class.std::vector.14", i32, i32, i32, i32, i32, i32, i32, i32, i32, i32, %"class.std::vector.14", %"class.std::vector.14", %"class.std::__cxx11::basic_string" }
%"class.open_spiel::State.base" = type <{ ptr, %"class.std::shared_ptr", i32, i32, %"class.std::vector", i32 }>
%"class.std::vector" = type { %"struct.std::_Vector_base" }
%"struct.std::_Vector_base" = type { %"struct.std::_Vector_base<open_spiel::State::PlayerAction, std::allocator<open_spiel::State::PlayerAction>>::_Vector_impl" }
%"struct.std::_Vector_base<open_spiel::State::PlayerAction, std::allocator<open_spiel::State::PlayerAction>>::_Vector_impl" = type { %"struct.std::_Vector_base<open_spiel::State::PlayerAction, std::allocator<open_spiel::State::PlayerAction>>::_Vector_impl_data" }
%"struct.std::_Vector_base<open_spiel::State::PlayerAction, std::allocator<open_spiel::State::PlayerAction>>::_Vector_impl_data" = type { ptr, ptr, ptr }
%"class.std::vector.9" = type { %"struct.std::_Vector_base.10" }
%"struct.std::_Vector_base.10" = type { %"struct.std::_Vector_base<std::vector<int>, std::allocator<std::vector<int>>>::_Vector_impl" }
%"struct.std::_Vector_base<std::vector<int>, std::allocator<std::vector<int>>>::_Vector_impl" = type { %"struct.std::_Vector_base<std::vector<int>, std::allocator<std::vector<int>>>::_Vector_impl_data" }
%"struct.std::_Vector_base<std::vector<int>, std::allocator<std::vector<int>>>::_Vector_impl_data" = type { ptr, ptr, ptr }
%"class.open_spiel::State" = type <{ ptr, %"class.std::shared_ptr", i32, i32, %"class.std::vector", i32, [4 x i8] }>
%"struct.std::pair.19" = type { i32, i32 }
%"class.open_spiel::liars_dice::LiarsDiceGame" = type <{ %"class.open_spiel::Game", i32, i32, %"class.std::vector.14", i32, i32, i32, [4 x i8] }>
%"class.open_spiel::Game" = type { ptr, %"class.std::enable_shared_from_this", %"struct.open_spiel::GameType", %"class.std::map", %"class.std::map", %"class.absl::debian2::Mutex" }
%"class.std::enable_shared_from_this" = type { %"class.std::weak_ptr" }
%"class.std::weak_ptr" = type { %"class.std::__weak_ptr" }
%"class.std::__weak_ptr" = type { ptr, %"class.std::__weak_count" }
%"class.std::__weak_count" = type { ptr }
%"class.absl::debian2::Mutex" = type { %"struct.std::atomic" }
%"struct.std::atomic" = type { %"struct.std::__atomic_base" }
%"struct.std::__atomic_base" = type { i64 }

; Function Attrs: mustprogress nounwind uwtable
define linkonce_odr noundef ptr @_ZN10open_spiel9down_castIPKNS_10liars_dice13LiarsDiceGameEKNS_4GameEEET_PT0_(ptr noundef %0) #5 comdat {
  %2 = alloca ptr, align 8
  store ptr %0, ptr %2, align 8
  %3 = load ptr, ptr %2, align 8
  ret ptr %3
}

; Function Attrs: mustprogress nounwind uwtable
define linkonce_odr noundef i32 @_ZNK10open_spiel10liars_dice13LiarsDiceGame10dice_sidesEv(ptr noundef nonnull align 8 dereferenceable(324) %0) #5 comdat align 2 {
  %2 = alloca ptr, align 8
  store ptr %0, ptr %2, align 8
  %3 = load ptr, ptr %2, align 8
  %4 = getelementptr inbounds nuw %"class.open_spiel::liars_dice::LiarsDiceGame", ptr %3, i32 0, i32 5
  %5 = load i32, ptr %4, align 4
  ret i32 %5
}

; Function Attrs: mustprogress uwtable
define internal noundef ptr @_ZN10open_spiel10liars_dice12_GLOBAL__N_110UnwrapGameEPKNS_4GameE(ptr noundef %0) #4 {
  %2 = alloca ptr, align 8
  store ptr %0, ptr %2, align 8
  %3 = load ptr, ptr %2, align 8
  %4 = call noundef ptr @_ZN10open_spiel9down_castIPKNS_10liars_dice13LiarsDiceGameEKNS_4GameEEET_PT0_(ptr noundef %3)
  ret ptr %4
}

; Function Attrs: mustprogress nounwind uwtable
define linkonce_odr noundef ptr @_ZNKSt12__shared_ptrIKN10open_spiel4GameELN9__gnu_cxx12_Lock_policyE2EE3getEv(ptr noundef nonnull align 8 dereferenceable(16) %0) #5 comdat align 2 {
  %2 = alloca ptr, align 8
  store ptr %0, ptr %2, align 8
  %3 = load ptr, ptr %2, align 8
  %4 = getelementptr inbounds nuw %"class.std::__shared_ptr", ptr %3, i32 0, i32 0
  %5 = load ptr, ptr %4, align 8
  ret ptr %5
}

; Function Attrs: mustprogress uwtable
define noundef i32 @_ZNK10open_spiel10liars_dice14LiarsDiceState10dice_sidesEv(ptr noundef nonnull align 8 dereferenceable(232) %0) #4 align 2 {
  %2 = alloca ptr, align 8
  store ptr %0, ptr %2, align 8
  %3 = load ptr, ptr %2, align 8
  %4 = getelementptr inbounds nuw %"class.open_spiel::State", ptr %3, i32 0, i32 1
  %5 = call noundef ptr @_ZNKSt12__shared_ptrIKN10open_spiel4GameELN9__gnu_cxx12_Lock_policyE2EE3getEv(ptr noundef nonnull align 8 dereferenceable(16) %4) #3
  %6 = call noundef ptr @_ZN10open_spiel10liars_dice12_GLOBAL__N_110UnwrapGameEPKNS_4GameE(ptr noundef %5)
  %7 = call noundef i32 @_ZNK10open_spiel10liars_dice13LiarsDiceGame10dice_sidesEv(ptr noundef nonnull align 8 dereferenceable(324) %6)
  ret i32 %7
}

; Function Attrs: mustprogress nounwind uwtable
define linkonce_odr noundef nonnull align 8 dereferenceable(24) ptr @_ZNSt6vectorIS_IiSaIiEESaIS1_EEixEm(ptr noundef nonnull align 8 dereferenceable(24) %0, i64 noundef %1) #5 comdat align 2 {
  %3 = alloca ptr, align 8
  %4 = alloca i64, align 8
  store ptr %0, ptr %3, align 8
  store i64 %1, ptr %4, align 8
  %5 = load ptr, ptr %3, align 8
  %6 = getelementptr inbounds nuw %"struct.std::_Vector_base.10", ptr %5, i32 0, i32 0
  %7 = getelementptr inbounds nuw %"struct.std::_Vector_base<std::vector<int>, std::allocator<std::vector<int>>>::_Vector_impl_data", ptr %6, i32 0, i32 0
  %8 = load ptr, ptr %7, align 8
  %9 = load i64, ptr %4, align 8
  %10 = getelementptr inbounds %"class.std::vector.14", ptr %8, i64 %9
  ret ptr %10
}

; Function Attrs: mustprogress nounwind uwtable
define linkonce_odr noundef nonnull align 4 dereferenceable(4) ptr @_ZNSt6vectorIiSaIiEEixEm(ptr noundef nonnull align 8 dereferenceable(24) %0, i64 noundef %1) #5 comdat align 2 {
  %3 = alloca ptr, align 8
  %4 = alloca i64, align 8
  store ptr %0, ptr %3, align 8
  store i64 %1, ptr %4, align 8
  %5 = load ptr, ptr %3, align 8
  %6 = getelementptr inbounds nuw %"struct.std::_Vector_base.15", ptr %5, i32 0, i32 0
  %7 = getelementptr inbounds nuw %"struct.std::_Vector_base<int, std::allocator<int>>::_Vector_impl_data", ptr %6, i32 0, i32 0
  %8 = load ptr, ptr %7, align 8
  %9 = load i64, ptr %4, align 8
  %10 = getelementptr inbounds i32, ptr %8, i64 %9
  ret ptr %10
}

; Function Attrs: mustprogress uwtable
define void @_ZN10open_spiel10liars_dice14LiarsDiceState13ResolveWinnerEv(ptr noundef nonnull align 8 dereferenceable(232) %0) #4 align 2 {
  %2 = alloca ptr, align 8
  %3 = alloca %"struct.std::pair.19", align 4
  %4 = alloca i32, align 4
  %5 = alloca i32, align 4
  %6 = alloca i32, align 4
  %7 = alloca i32, align 4
  %8 = alloca i32, align 4
  store ptr %0, ptr %2, align 8
  %9 = load ptr, ptr %2, align 8
  %10 = getelementptr inbounds nuw %"class.open_spiel::liars_dice::LiarsDiceState", ptr %9, i32 0, i32 7
  %11 = load i32, ptr %10, align 8
  %12 = call i64 @_ZNK10open_spiel10liars_dice14LiarsDiceState9UnrankBidEi(ptr noundef nonnull align 8 dereferenceable(232) %9, i32 noundef %11)
  store i64 %12, ptr %3, align 4
  %13 = getelementptr inbounds nuw %"struct.std::pair.19", ptr %3, i32 0, i32 0
  %14 = load i32, ptr %13, align 4
  store i32 %14, ptr %4, align 4
  %15 = getelementptr inbounds nuw %"struct.std::pair.19", ptr %3, i32 0, i32 1
  %16 = load i32, ptr %15, align 4
  store i32 %16, ptr %5, align 4
  store i32 0, ptr %6, align 4
  store i32 0, ptr %7, align 4
  br label %17

17:                                               ; preds = %61, %1
  %18 = load i32, ptr %7, align 4
  %19 = getelementptr inbounds nuw %"class.open_spiel::State", ptr %9, i32 0, i32 3
  %20 = load i32, ptr %19, align 4
  %21 = icmp slt i32 %18, %20
  br i1 %21, label %22, label %64

22:                                               ; preds = %17
  store i32 0, ptr %8, align 4
  br label %23

23:                                               ; preds = %57, %22
  %24 = load i32, ptr %8, align 4
  %25 = getelementptr inbounds nuw %"class.open_spiel::liars_dice::LiarsDiceState", ptr %9, i32 0, i32 13
  %26 = load i32, ptr %7, align 4
  %27 = sext i32 %26 to i64
  %28 = call noundef nonnull align 4 dereferenceable(4) ptr @_ZNSt6vectorIiSaIiEEixEm(ptr noundef nonnull align 8 dereferenceable(24) %25, i64 noundef %27) #3
  %29 = load i32, ptr %28, align 4
  %30 = icmp slt i32 %24, %29
  br i1 %30, label %31, label %60

31:                                               ; preds = %23
  %32 = getelementptr inbounds nuw %"class.open_spiel::liars_dice::LiarsDiceState", ptr %9, i32 0, i32 1
  %33 = load i32, ptr %7, align 4
  %34 = sext i32 %33 to i64
  %35 = call noundef nonnull align 8 dereferenceable(24) ptr @_ZNSt6vectorIS_IiSaIiEESaIS1_EEixEm(ptr noundef nonnull align 8 dereferenceable(24) %32, i64 noundef %34) #3
  %36 = load i32, ptr %8, align 4
  %37 = sext i32 %36 to i64
  %38 = call noundef nonnull align 4 dereferenceable(4) ptr @_ZNSt6vectorIiSaIiEEixEm(ptr noundef nonnull align 8 dereferenceable(24) %35, i64 noundef %37) #3
  %39 = load i32, ptr %38, align 4
  %40 = load i32, ptr %5, align 4
  %41 = icmp eq i32 %39, %40
  br i1 %41, label %53, label %42

42:                                               ; preds = %31
  %43 = getelementptr inbounds nuw %"class.open_spiel::liars_dice::LiarsDiceState", ptr %9, i32 0, i32 1
  %44 = load i32, ptr %7, align 4
  %45 = sext i32 %44 to i64
  %46 = call noundef nonnull align 8 dereferenceable(24) ptr @_ZNSt6vectorIS_IiSaIiEESaIS1_EEixEm(ptr noundef nonnull align 8 dereferenceable(24) %43, i64 noundef %45) #3
  %47 = load i32, ptr %8, align 4
  %48 = sext i32 %47 to i64
  %49 = call noundef nonnull align 4 dereferenceable(4) ptr @_ZNSt6vectorIiSaIiEEixEm(ptr noundef nonnull align 8 dereferenceable(24) %46, i64 noundef %48) #3
  %50 = load i32, ptr %49, align 4
  %51 = call noundef i32 @_ZNK10open_spiel10liars_dice14LiarsDiceState10dice_sidesEv(ptr noundef nonnull align 8 dereferenceable(232) %9)
  %52 = icmp eq i32 %50, %51
  br i1 %52, label %53, label %56

53:                                               ; preds = %42, %31
  %54 = load i32, ptr %6, align 4
  %55 = add nsw i32 %54, 1
  store i32 %55, ptr %6, align 4
  br label %56

56:                                               ; preds = %53, %42
  br label %57

57:                                               ; preds = %56
  %58 = load i32, ptr %8, align 4
  %59 = add nsw i32 %58, 1
  store i32 %59, ptr %8, align 4
  br label %23, !llvm.loop !4

60:                                               ; preds = %23
  br label %61

61:                                               ; preds = %60
  %62 = load i32, ptr %7, align 4
  %63 = add nsw i32 %62, 1
  store i32 %63, ptr %7, align 4
  br label %17, !llvm.loop !6

64:                                               ; preds = %17
  %65 = load i32, ptr %6, align 4
  %66 = load i32, ptr %4, align 4
  %67 = icmp sge i32 %65, %66
  br i1 %67, label %68, label %75

68:                                               ; preds = %64
  %69 = getelementptr inbounds nuw %"class.open_spiel::liars_dice::LiarsDiceState", ptr %9, i32 0, i32 11
  %70 = load i32, ptr %69, align 8
  %71 = getelementptr inbounds nuw %"class.open_spiel::liars_dice::LiarsDiceState", ptr %9, i32 0, i32 5
  store i32 %70, ptr %71, align 8
  %72 = getelementptr inbounds nuw %"class.open_spiel::liars_dice::LiarsDiceState", ptr %9, i32 0, i32 10
  %73 = load i32, ptr %72, align 4
  %74 = getelementptr inbounds nuw %"class.open_spiel::liars_dice::LiarsDiceState", ptr %9, i32 0, i32 6
  store i32 %73, ptr %74, align 4
  br label %82

75:                                               ; preds = %64
  %76 = getelementptr inbounds nuw %"class.open_spiel::liars_dice::LiarsDiceState", ptr %9, i32 0, i32 10
  %77 = load i32, ptr %76, align 4
  %78 = getelementptr inbounds nuw %"class.open_spiel::liars_dice::LiarsDiceState", ptr %9, i32 0, i32 5
  store i32 %77, ptr %78, align 8
  %79 = getelementptr inbounds nuw %"class.open_spiel::liars_dice::LiarsDiceState", ptr %9, i32 0, i32 11
  %80 = load i32, ptr %79, align 8
  %81 = getelementptr inbounds nuw %"class.open_spiel::liars_dice::LiarsDiceState", ptr %9, i32 0, i32 6
  store i32 %80, ptr %81, align 4
  br label %82

82:                                               ; preds = %75, %68
  ret void
}