; Function Attrs: mustprogress uwtable
define void @_ZN10open_spiel10liars_dice14LiarsDiceState13ResolveWinnerEv(ptr nocapture noundef nonnull align 8 dereferenceable(232) %0) local_unnamed_addr #3 align 2 {
  %2 = getelementptr inbounds nuw i8, ptr %0, i64 128
  %3 = load i32, ptr %2, align 8
  %4 = tail call i64 @_ZNK10open_spiel10liars_dice14LiarsDiceState9UnrankBidEi(ptr noundef nonnull align 8 dereferenceable(232) %0, i32 noundef %3)
  %.sroa.2.0.extract.shift = lshr i64 %4, 32
  %.sroa.2.0.extract.trunc = trunc nuw nsw i64 %.sroa.2.0.extract.shift to i32
  %5 = getelementptr inbounds nuw i8, ptr %0, i64 28
  %6 = load i32, ptr %5, align 4
  %7 = icmp sgt i32 %6, 0
  br i1 %7, label %.preheader.lr.ph, label %._crit_edge19

.preheader.lr.ph:                                 ; preds = %1
  %8 = getelementptr inbounds nuw i8, ptr %0, i64 152
  %9 = load ptr, ptr %8, align 8
  %10 = getelementptr inbounds nuw i8, ptr %0, i64 64
  %11 = load ptr, ptr %10, align 8
  %12 = getelementptr inbounds nuw i8, ptr %0, i64 8
  %13 = load ptr, ptr %12, align 8
  %14 = getelementptr inbounds nuw i8, ptr %13, i64 316
  %wide.trip.count25 = zext nneg i32 %6 to i64
  br label %.preheader

.preheader:                                       ; preds = %.preheader.lr.ph, %._crit_edge
  %indvars.iv22 = phi i64 [ 0, %.preheader.lr.ph ], [ %indvars.iv.next23, %._crit_edge ]
  %.01417 = phi i32 [ 0, %.preheader.lr.ph ], [ %.1.lcssa, %._crit_edge ]
  %15 = getelementptr inbounds i32, ptr %9, i64 %indvars.iv22
  %16 = load i32, ptr %15, align 4
  %17 = icmp sgt i32 %16, 0
  br i1 %17, label %.lr.ph, label %._crit_edge

.lr.ph:                                           ; preds = %.preheader
  %18 = getelementptr inbounds %"class.std::vector.14", ptr %11, i64 %indvars.iv22
  %19 = load ptr, ptr %18, align 8
  %wide.trip.count = zext nneg i32 %16 to i64
  br label %20

20:                                               ; preds = %.lr.ph, %29
  %indvars.iv = phi i64 [ 0, %.lr.ph ], [ %indvars.iv.next, %29 ]
  %.115 = phi i32 [ %.01417, %.lr.ph ], [ %.2, %29 ]
  %21 = getelementptr inbounds i32, ptr %19, i64 %indvars.iv
  %22 = load i32, ptr %21, align 4
  %23 = icmp eq i32 %22, %.sroa.2.0.extract.trunc
  br i1 %23, label %27, label %24

24:                                               ; preds = %20
  %25 = load i32, ptr %14, align 4
  %26 = icmp eq i32 %22, %25
  br i1 %26, label %27, label %29

27:                                               ; preds = %24, %20
  %28 = add nsw i32 %.115, 1
  br label %29

29:                                               ; preds = %24, %27
  %.2 = phi i32 [ %28, %27 ], [ %.115, %24 ]
  %indvars.iv.next = add nuw nsw i64 %indvars.iv, 1
  %exitcond.not = icmp eq i64 %indvars.iv.next, %wide.trip.count
  br i1 %exitcond.not, label %._crit_edge, label %20, !llvm.loop !6

._crit_edge:                                      ; preds = %29, %.preheader
  %.1.lcssa = phi i32 [ %.01417, %.preheader ], [ %.2, %29 ]
  %indvars.iv.next23 = add nuw nsw i64 %indvars.iv22, 1
  %exitcond26.not = icmp eq i64 %indvars.iv.next23, %wide.trip.count25
  br i1 %exitcond26.not, label %._crit_edge19, label %.preheader, !llvm.loop !7

._crit_edge19:                                    ; preds = %._crit_edge, %1
  %.014.lcssa = phi i32 [ 0, %1 ], [ %.1.lcssa, %._crit_edge ]
  %.sroa.0.0.extract.trunc = trunc i64 %4 to i32
  %.not = icmp slt i32 %.014.lcssa, %.sroa.0.0.extract.trunc
  %. = select i1 %.not, i64 140, i64 144
  %.30 = select i1 %.not, i64 144, i64 140
  %30 = getelementptr inbounds nuw i8, ptr %0, i64 %.
  %31 = getelementptr inbounds nuw i8, ptr %0, i64 %.30
  %.sink = load i32, ptr %31, align 4
  %.sink27 = load i32, ptr %30, align 4
  %32 = getelementptr inbounds nuw i8, ptr %0, i64 120
  store i32 %.sink27, ptr %32, align 8
  %33 = getelementptr inbounds nuw i8, ptr %0, i64 124
  store i32 %.sink, ptr %33, align 4
  ret void
}